target datalayout = "e-m:e-p270:32:32-p271:32:32-p272:64:64-i64:64-i128:128-f80:128-n8:16:32:64-S128"
target triple = "x86_64-pc-linux-gnu"

%struct._longobject = type { %struct._object, %struct._PyLongValue }
%struct._object = type { %union.anon.26, ptr }
%union.anon.26 = type { i64 }
%struct._PyLongValue = type { i64, [1 x i32] }
%struct.PyCompilerFlags = type { i32, i32 }
%struct._PyCompiler = type { ptr, ptr, %struct._PyFutureFeatures, %struct.PyCompilerFlags, i32, i32, ptr, ptr, ptr, i8 }
%struct._PyFutureFeatures = type { i32, %struct._Py_SourceLocation }
%struct._Py_SourceLocation = type { i32, i32, i32, i32 }
%struct.compiler_unit = type { ptr, i32, ptr, ptr, ptr, ptr, i32, i32, [21 x %struct._PyCompile_FBlockInfo], %struct._PyCompile_CodeUnitMetadata }
%struct._PyCompile_FBlockInfo = type { i32, %struct._PyJumpTargetLabel, %struct._Py_SourceLocation, %struct._PyJumpTargetLabel, ptr }
%struct._PyJumpTargetLabel = type { i32 }
%struct._PyCompile_CodeUnitMetadata = type { ptr, ptr, ptr, ptr, ptr, ptr, ptr, ptr, i64, i64, i64, i32 }
%struct.anon.27 = type { i32, i32 }

@_Py_TrueStruct = external global %struct._longobject, align 8

; Function Attrs: alwaysinline nounwind uwtable
define internal i32 @_Py_IsImmortal(ptr noundef %0) #4 {
  %2 = alloca ptr, align 8
  store ptr %0, ptr %2, align 8, !tbaa !32
  %3 = load ptr, ptr %2, align 8, !tbaa !32
  %4 = getelementptr inbounds nuw %struct._object, ptr %3, i32 0, i32 0
  %5 = getelementptr inbounds nuw %struct.anon.27, ptr %4, i32 0, i32 0
  %6 = load i32, ptr %5, align 8, !tbaa !11
  %7 = icmp slt i32 %6, 0
  %8 = zext i1 %7 to i32
  ret i32 %8
}

; Function Attrs: alwaysinline nounwind uwtable
define internal void @Py_DECREF(ptr noundef %0) #4 {
  %2 = alloca ptr, align 8
  store ptr %0, ptr %2, align 8, !tbaa !32
  %3 = load ptr, ptr %2, align 8, !tbaa !32
  %4 = call i32 @_Py_IsImmortal(ptr noundef %3)
  %5 = icmp ne i32 %4, 0
  br i1 %5, label %6, label %7

6:                                                ; preds = %1
  br label %16

7:                                                ; preds = %1
  %8 = load ptr, ptr %2, align 8, !tbaa !32
  %9 = getelementptr inbounds nuw %struct._object, ptr %8, i32 0, i32 0
  %10 = getelementptr inbounds nuw %struct.anon.27, ptr %9, i32 0, i32 0
  %11 = load i32, ptr %10, align 8, !tbaa !11
  %12 = add i32 %11, -1
  store i32 %12, ptr %10, align 8, !tbaa !11
  %13 = icmp eq i32 %12, 0
  br i1 %13, label %14, label %16

14:                                               ; preds = %7
  %15 = load ptr, ptr %2, align 8, !tbaa !32
  call void @_Py_Dealloc(ptr noundef %15)
  br label %16

16:                                               ; preds = %6, %14, %7
  ret void
}

; Function Attrs: inlinehint nounwind uwtable
define internal void @Py_XDECREF(ptr noundef %0) #3 {
  %2 = alloca ptr, align 8
  store ptr %0, ptr %2, align 8, !tbaa !32
  %3 = load ptr, ptr %2, align 8, !tbaa !32
  %4 = icmp ne ptr %3, null
  br i1 %4, label %5, label %7

5:                                                ; preds = %1
  %6 = load ptr, ptr %2, align 8, !tbaa !32
  call void @Py_DECREF(ptr noundef %6)
  br label %7

7:                                                ; preds = %5, %1
  ret void
}

; Function Attrs: nounwind uwtable
define hidden i32 @_PyCompile_ResolveNameop(ptr noundef %0, ptr noundef %1, i32 noundef %2, ptr noundef %3, ptr noundef %4) #0 {
  %6 = alloca i32, align 4
  %7 = alloca ptr, align 8
  %8 = alloca ptr, align 8
  %9 = alloca i32, align 4
  %10 = alloca ptr, align 8
  %11 = alloca ptr, align 8
  %12 = alloca ptr, align 8
  %13 = alloca ptr, align 8
  %14 = alloca i32, align 4
  store ptr %0, ptr %7, align 8, !tbaa !4
  store ptr %1, ptr %8, align 8, !tbaa !32
  store i32 %2, ptr %9, align 4, !tbaa !50
  store ptr %3, ptr %10, align 8, !tbaa !42
  store ptr %4, ptr %11, align 8, !tbaa !103
  call void @llvm.lifetime.start.p0(i64 8, ptr %12) #8
  %15 = load ptr, ptr %7, align 8, !tbaa !4
  %16 = getelementptr inbounds nuw %struct._PyCompiler, ptr %15, i32 0, i32 7
  %17 = load ptr, ptr %16, align 8, !tbaa !48
  %18 = getelementptr inbounds nuw %struct.compiler_unit, ptr %17, i32 0, i32 9
  %19 = getelementptr inbounds nuw %struct._PyCompile_CodeUnitMetadata, ptr %18, i32 0, i32 3
  %20 = load ptr, ptr %19, align 8, !tbaa !69
  store ptr %20, ptr %12, align 8, !tbaa !32
  %21 = load ptr, ptr %10, align 8, !tbaa !42
  store i32 3, ptr %21, align 4, !tbaa !50
  %22 = load i32, ptr %9, align 4, !tbaa !50
  switch i32 %22, label %87 [
    i32 4, label %23
    i32 5, label %31
    i32 1, label %39
    i32 3, label %74
    i32 2, label %85
  ]

23:                                               ; preds = %5
  %24 = load ptr, ptr %7, align 8, !tbaa !4
  %25 = getelementptr inbounds nuw %struct._PyCompiler, ptr %24, i32 0, i32 7
  %26 = load ptr, ptr %25, align 8, !tbaa !48
  %27 = getelementptr inbounds nuw %struct.compiler_unit, ptr %26, i32 0, i32 9
  %28 = getelementptr inbounds nuw %struct._PyCompile_CodeUnitMetadata, ptr %27, i32 0, i32 6
  %29 = load ptr, ptr %28, align 8, !tbaa !64
  store ptr %29, ptr %12, align 8, !tbaa !32
  %30 = load ptr, ptr %10, align 8, !tbaa !42
  store i32 2, ptr %30, align 4, !tbaa !50
  br label %88

31:                                               ; preds = %5
  %32 = load ptr, ptr %7, align 8, !tbaa !4
  %33 = getelementptr inbounds nuw %struct._PyCompiler, ptr %32, i32 0, i32 7
  %34 = load ptr, ptr %33, align 8, !tbaa !48
  %35 = getelementptr inbounds nuw %struct.compiler_unit, ptr %34, i32 0, i32 9
  %36 = getelementptr inbounds nuw %struct._PyCompile_CodeUnitMetadata, ptr %35, i32 0, i32 5
  %37 = load ptr, ptr %36, align 8, !tbaa !63
  store ptr %37, ptr %12, align 8, !tbaa !32
  %38 = load ptr, ptr %10, align 8, !tbaa !42
  store i32 2, ptr %38, align 4, !tbaa !50
  br label %88

39:                                               ; preds = %5
  %40 = load ptr, ptr %7, align 8, !tbaa !4
  %41 = getelementptr inbounds nuw %struct._PyCompiler, ptr %40, i32 0, i32 7
  %42 = load ptr, ptr %41, align 8, !tbaa !48
  %43 = getelementptr inbounds nuw %struct.compiler_unit, ptr %42, i32 0, i32 0
  %44 = load ptr, ptr %43, align 8, !tbaa !56
  %45 = call i32 @_PyST_IsFunctionLike(ptr noundef %44)
  %46 = icmp ne i32 %45, 0
  br i1 %46, label %47, label %49

47:                                               ; preds = %39
  %48 = load ptr, ptr %10, align 8, !tbaa !42
  store i32 0, ptr %48, align 4, !tbaa !50
  br label %73

49:                                               ; preds = %39
  call void @llvm.lifetime.start.p0(i64 8, ptr %13) #8
  br label %50

50:                                               ; preds = %49
  %51 = load ptr, ptr %7, align 8, !tbaa !4
  %52 = getelementptr inbounds nuw %struct._PyCompiler, ptr %51, i32 0, i32 7
  %53 = load ptr, ptr %52, align 8, !tbaa !48
  %54 = getelementptr inbounds nuw %struct.compiler_unit, ptr %53, i32 0, i32 9
  %55 = getelementptr inbounds nuw %struct._PyCompile_CodeUnitMetadata, ptr %54, i32 0, i32 7
  %56 = load ptr, ptr %55, align 8, !tbaa !65
  %57 = load ptr, ptr %8, align 8, !tbaa !32
  %58 = call i32 @PyDict_GetItemRef(ptr noundef %56, ptr noundef %57, ptr noundef %13)
  %59 = icmp eq i32 %58, -1
  br i1 %59, label %60, label %61

60:                                               ; preds = %50
  store i32 -1, ptr %6, align 4
  store i32 1, ptr %14, align 4
  br label %70

61:                                               ; preds = %50
  br label %62

62:                                               ; preds = %61
  br label %63

63:                                               ; preds = %62
  %64 = load ptr, ptr %13, align 8, !tbaa !32
  %65 = icmp eq ptr %64, @_Py_TrueStruct
  br i1 %65, label %66, label %68

66:                                               ; preds = %63
  %67 = load ptr, ptr %10, align 8, !tbaa !42
  store i32 0, ptr %67, align 4, !tbaa !50
  br label %68

68:                                               ; preds = %66, %63
  %69 = load ptr, ptr %13, align 8, !tbaa !32
  call void @Py_XDECREF(ptr noundef %69)
  store i32 0, ptr %14, align 4
  br label %70

70:                                               ; preds = %68, %60
  call void @llvm.lifetime.end.p0(i64 8, ptr %13) #8
  %71 = load i32, ptr %14, align 4
  switch i32 %71, label %106 [
    i32 0, label %72
  ]

72:                                               ; preds = %70
  br label %73

73:                                               ; preds = %72, %47
  br label %88

74:                                               ; preds = %5
  %75 = load ptr, ptr %7, align 8, !tbaa !4
  %76 = getelementptr inbounds nuw %struct._PyCompiler, ptr %75, i32 0, i32 7
  %77 = load ptr, ptr %76, align 8, !tbaa !48
  %78 = getelementptr inbounds nuw %struct.compiler_unit, ptr %77, i32 0, i32 0
  %79 = load ptr, ptr %78, align 8, !tbaa !56
  %80 = call i32 @_PyST_IsFunctionLike(ptr noundef %79)
  %81 = icmp ne i32 %80, 0
  br i1 %81, label %82, label %84

82:                                               ; preds = %74
  %83 = load ptr, ptr %10, align 8, !tbaa !42
  store i32 1, ptr %83, align 4, !tbaa !50
  br label %84

84:                                               ; preds = %82, %74
  br label %88

85:                                               ; preds = %5
  %86 = load ptr, ptr %10, align 8, !tbaa !42
  store i32 1, ptr %86, align 4, !tbaa !50
  br label %88

87:                                               ; preds = %5
  br label %88

88:                                               ; preds = %87, %85, %84, %73, %31, %23
  %89 = load ptr, ptr %10, align 8, !tbaa !42
  %90 = load i32, ptr %89, align 4, !tbaa !50
  %91 = icmp ne i32 %90, 0
  br i1 %91, label %92, label %105

92:                                               ; preds = %88
  %93 = load ptr, ptr %12, align 8, !tbaa !32
  %94 = load ptr, ptr %8, align 8, !tbaa !32
  %95 = call i64 @_PyCompile_DictAddObj(ptr noundef %93, ptr noundef %94)
  %96 = load ptr, ptr %11, align 8, !tbaa !103
  store i64 %95, ptr %96, align 8, !tbaa !24
  br label %97

97:                                               ; preds = %92
  %98 = load ptr, ptr %11, align 8, !tbaa !103
  %99 = load i64, ptr %98, align 8, !tbaa !24
  %100 = icmp eq i64 %99, -1
  br i1 %100, label %101, label %102

101:                                              ; preds = %97
  store i32 -1, ptr %6, align 4
  store i32 1, ptr %14, align 4
  br label %106

102:                                              ; preds = %97
  br label %103

103:                                              ; preds = %102
  br label %104

104:                                              ; preds = %103
  br label %105

105:                                              ; preds = %104, %88
  store i32 0, ptr %6, align 4
  store i32 1, ptr %14, align 4
  br label %106

106:                                              ; preds = %105, %101, %70
  call void @llvm.lifetime.end.p0(i64 8, ptr %12) #8
  %107 = load i32, ptr %6, align 4
  ret i32 %107
}