; Function Attrs: nounwind uwtable
define hidden range(i32 -1, 1) i32 @_PyCompile_ResolveNameop(ptr noundef readonly captures(none) %0, ptr noundef %1, i32 noundef %2, ptr noundef captures(none) initializes((0, 4)) %3, ptr noundef writeonly captures(none) %4) local_unnamed_addr #0 {
  %6 = alloca ptr, align 8
  %7 = getelementptr inbounds nuw i8, ptr %0, i64 64
  %8 = load ptr, ptr %7, align 8, !tbaa !42
  %9 = getelementptr inbounds nuw i8, ptr %8, i64 920
  %10 = load ptr, ptr %9, align 8, !tbaa !62
  store i32 3, ptr %3, align 4, !tbaa !46
  switch i32 %2, label %.thread27 [
    i32 4, label %.thread27.sink.split.sink.split
    i32 5, label %11
    i32 1, label %12
    i32 3, label %30
    i32 2, label %.thread27.sink.split
  ]

11:                                               ; preds = %5
  br label %.thread27.sink.split.sink.split

12:                                               ; preds = %5
  %13 = load ptr, ptr %8, align 8, !tbaa !48
  %14 = tail call i32 @_PyST_IsFunctionLike(ptr noundef %13) #11
  %.not23 = icmp eq i32 %14, 0
  br i1 %.not23, label %15, label %.thread31

.thread31:                                        ; preds = %12
  store i32 0, ptr %3, align 4, !tbaa !46
  br label %38

15:                                               ; preds = %12
  call void @llvm.lifetime.start.p0(i64 8, ptr nonnull %6) #11
  %16 = load ptr, ptr %7, align 8, !tbaa !42
  %17 = getelementptr inbounds nuw i8, ptr %16, i64 952
  %18 = load ptr, ptr %17, align 8, !tbaa !58
  %19 = call i32 @PyDict_GetItemRef(ptr noundef %18, ptr noundef %1, ptr noundef nonnull %6) #11
  %.not24 = icmp eq i32 %19, -1
  br i1 %.not24, label %.critedge, label %20

20:                                               ; preds = %15
  %21 = load ptr, ptr %6, align 8, !tbaa !28
  %22 = icmp eq ptr %21, @_Py_TrueStruct
  br i1 %22, label %.thread, label %23

.thread:                                          ; preds = %20
  store i32 0, ptr %3, align 4, !tbaa !46
  br label %24

23:                                               ; preds = %20
  %.not.i = icmp eq ptr %21, null
  br i1 %.not.i, label %Py_XDECREF.exit, label %24

24:                                               ; preds = %.thread, %23
  %25 = load i32, ptr %21, align 8, !tbaa !4
  %.not.i.i = icmp sgt i32 %25, -1
  br i1 %.not.i.i, label %26, label %Py_XDECREF.exit

26:                                               ; preds = %24
  %27 = add nsw i32 %25, -1
  store i32 %27, ptr %21, align 8, !tbaa !4
  %28 = icmp eq i32 %27, 0
  br i1 %28, label %29, label %Py_XDECREF.exit

29:                                               ; preds = %26
  call void @_Py_Dealloc(ptr noundef nonnull %21) #11
  br label %Py_XDECREF.exit

Py_XDECREF.exit:                                  ; preds = %23, %24, %26, %29
  call void @llvm.lifetime.end.p0(i64 8, ptr nonnull %6) #11
  br label %33

30:                                               ; preds = %5
  %31 = load ptr, ptr %8, align 8, !tbaa !48
  %32 = tail call i32 @_PyST_IsFunctionLike(ptr noundef %31) #11
  %.not = icmp eq i32 %32, 0
  br i1 %.not, label %33, label %.thread27.sink.split

33:                                               ; preds = %Py_XDECREF.exit, %30
  %.pr = load i32, ptr %3, align 4, !tbaa !46
  %.not25 = icmp eq i32 %.pr, 0
  br i1 %.not25, label %38, label %.thread27

.thread27.sink.split.sink.split:                  ; preds = %5, %11
  %.sink35 = phi i64 [ 936, %11 ], [ 944, %5 ]
  %34 = getelementptr inbounds nuw i8, ptr %8, i64 %.sink35
  %35 = load ptr, ptr %34, align 8, !tbaa !28
  br label %.thread27.sink.split

.thread27.sink.split:                             ; preds = %.thread27.sink.split.sink.split, %5, %30
  %.sink = phi i32 [ 1, %30 ], [ 1, %5 ], [ 2, %.thread27.sink.split.sink.split ]
  %.02130.ph = phi ptr [ %10, %30 ], [ %10, %5 ], [ %35, %.thread27.sink.split.sink.split ]
  store i32 %.sink, ptr %3, align 4, !tbaa !46
  br label %.thread27

.thread27:                                        ; preds = %.thread27.sink.split, %5, %33
  %.02130 = phi ptr [ %10, %33 ], [ %10, %5 ], [ %.02130.ph, %.thread27.sink.split ]
  %36 = call i64 @_PyCompile_DictAddObj(ptr noundef %.02130, ptr noundef %1)
  store i64 %36, ptr %4, align 8, !tbaa !45
  %37 = icmp eq i64 %36, -1
  br i1 %37, label %39, label %38

38:                                               ; preds = %.thread31, %.thread27, %33
  br label %39

.critedge:                                        ; preds = %15
  call void @llvm.lifetime.end.p0(i64 8, ptr nonnull %6) #11
  br label %39

39:                                               ; preds = %.thread27, %.critedge, %38
  %.1 = phi i32 [ 0, %38 ], [ -1, %.critedge ], [ -1, %.thread27 ]
  ret i32 %.1
}